target datalayout = "e-m:e-p270:32:32-p271:32:32-p272:64:64-i64:64-i128:128-f80:128-n8:16:32:64-S128"
target triple = "x86_64-pc-linux-gnu"

%struct.ident_t = type { i32, i32, i32, i32, ptr }

@1 = private unnamed_addr constant %struct.ident_t { i32 0, i32 514, i32 0, i32 22, ptr @0 }, align 8
@2 = private unnamed_addr constant %struct.ident_t { i32 0, i32 66, i32 0, i32 22, ptr @0 }, align 8

; Function Attrs: inlinehint nounwind uwtable
define internal i32 @extractBit(i32 noundef %0, i64 noundef %1) #7 {
  %3 = alloca i32, align 4
  %4 = alloca i64, align 8
  store i32 %0, ptr %3, align 4, !tbaa !8
  store i64 %1, ptr %4, align 8, !tbaa !4
  %5 = load i64, ptr %4, align 8, !tbaa !4
  %6 = load i32, ptr %3, align 4, !tbaa !8
  %7 = zext i32 %6 to i64
  %8 = shl i64 1, %7
  %9 = and i64 %5, %8
  %10 = load i32, ptr %3, align 4, !tbaa !8
  %11 = zext i32 %10 to i64
  %12 = ashr i64 %9, %11
  %13 = trunc i64 %12 to i32
  ret i32 %13
}

; Function Attrs: alwaysinline norecurse nounwind uwtable
define internal void @statevec_controlledNotDistributed.omp_outlined(ptr noalias noundef %0, ptr noalias noundef %1, ptr noundef nonnull align 8 dereferenceable(8) %2, ptr noundef nonnull align 4 dereferenceable(4) %3, ptr noundef nonnull align 8 dereferenceable(8) %4, ptr noundef nonnull align 8 dereferenceable(8) %5, ptr noundef nonnull align 8 dereferenceable(8) %6, ptr noundef nonnull align 8 dereferenceable(8) %7, ptr noundef nonnull align 8 dereferenceable(8) %8, ptr noundef nonnull align 8 dereferenceable(8) %9) #2 {
  %11 = alloca ptr, align 8
  %12 = alloca ptr, align 8
  %13 = alloca ptr, align 8
  %14 = alloca ptr, align 8
  %15 = alloca ptr, align 8
  %16 = alloca ptr, align 8
  %17 = alloca ptr, align 8
  %18 = alloca ptr, align 8
  %19 = alloca ptr, align 8
  %20 = alloca ptr, align 8
  %21 = alloca i32, align 4
  %22 = alloca i64, align 8
  %23 = alloca i64, align 8
  %24 = alloca i64, align 8
  %25 = alloca i64, align 8
  %26 = alloca i64, align 8
  %27 = alloca i64, align 8
  %28 = alloca i64, align 8
  %29 = alloca i32, align 4
  %30 = alloca i64, align 8
  store ptr %0, ptr %11, align 8, !tbaa !19
  store ptr %1, ptr %12, align 8, !tbaa !19
  store ptr %2, ptr %13, align 8, !tbaa !21
  store ptr %3, ptr %14, align 8, !tbaa !19
  store ptr %4, ptr %15, align 8, !tbaa !21
  store ptr %5, ptr %16, align 8, !tbaa !21
  store ptr %6, ptr %17, align 8, !tbaa !33
  store ptr %7, ptr %18, align 8, !tbaa !33
  store ptr %8, ptr %19, align 8, !tbaa !33
  store ptr %9, ptr %20, align 8, !tbaa !33
  %31 = load ptr, ptr %13, align 8, !tbaa !21
  %32 = load ptr, ptr %14, align 8, !tbaa !19
  %33 = load ptr, ptr %15, align 8, !tbaa !21
  %34 = load ptr, ptr %16, align 8, !tbaa !21
  %35 = load ptr, ptr %17, align 8, !tbaa !33
  %36 = load ptr, ptr %18, align 8, !tbaa !33
  %37 = load ptr, ptr %19, align 8, !tbaa !33
  %38 = load ptr, ptr %20, align 8, !tbaa !33
  call void @llvm.lifetime.start.p0(i64 4, ptr %21) #3
  call void @llvm.lifetime.start.p0(i64 8, ptr %22) #3
  call void @llvm.lifetime.start.p0(i64 8, ptr %23) #3
  %39 = load i64, ptr %31, align 8, !tbaa !4
  store i64 %39, ptr %23, align 8, !tbaa !4
  call void @llvm.lifetime.start.p0(i64 8, ptr %24) #3
  %40 = load i64, ptr %23, align 8, !tbaa !4
  %41 = sub nsw i64 %40, 0
  %42 = sdiv i64 %41, 1
  %43 = sub nsw i64 %42, 1
  store i64 %43, ptr %24, align 8, !tbaa !4
  call void @llvm.lifetime.start.p0(i64 8, ptr %25) #3
  store i64 0, ptr %25, align 8, !tbaa !4
  call void @llvm.lifetime.end.p0(i64 8, ptr %25) #3
  %44 = load i64, ptr %23, align 8, !tbaa !4
  %45 = icmp slt i64 0, %44
  br i1 %45, label %46, label %102

46:                                               ; preds = %10
  call void @llvm.lifetime.start.p0(i64 8, ptr %26) #3
  store i64 0, ptr %26, align 8, !tbaa !4
  call void @llvm.lifetime.start.p0(i64 8, ptr %27) #3
  %47 = load i64, ptr %24, align 8, !tbaa !4
  store i64 %47, ptr %27, align 8, !tbaa !4
  call void @llvm.lifetime.start.p0(i64 8, ptr %28) #3
  store i64 1, ptr %28, align 8, !tbaa !4
  call void @llvm.lifetime.start.p0(i64 4, ptr %29) #3
  store i32 0, ptr %29, align 4, !tbaa !8
  call void @llvm.lifetime.start.p0(i64 8, ptr %30) #3
  %48 = load ptr, ptr %11, align 8
  %49 = load i32, ptr %48, align 4, !tbaa !8
  call void @__kmpc_for_static_init_8(ptr @1, i32 %49, i32 34, ptr %29, ptr %26, ptr %27, ptr %28, i64 1, i64 1)
  %50 = load i64, ptr %27, align 8, !tbaa !4
  %51 = load i64, ptr %24, align 8, !tbaa !4
  %52 = icmp sgt i64 %50, %51
  br i1 %52, label %53, label %55

53:                                               ; preds = %46
  %54 = load i64, ptr %24, align 8, !tbaa !4
  br label %57

55:                                               ; preds = %46
  %56 = load i64, ptr %27, align 8, !tbaa !4
  br label %57

57:                                               ; preds = %55, %53
  %58 = phi i64 [ %54, %53 ], [ %56, %55 ]
  store i64 %58, ptr %27, align 8, !tbaa !4
  %59 = load i64, ptr %26, align 8, !tbaa !4
  store i64 %59, ptr %22, align 8, !tbaa !4
  br label %60

60:                                               ; preds = %95, %57
  %61 = load i64, ptr %22, align 8, !tbaa !4
  %62 = load i64, ptr %27, align 8, !tbaa !4
  %63 = icmp sle i64 %61, %62
  br i1 %63, label %65, label %64

64:                                               ; preds = %60
  br label %98

65:                                               ; preds = %60
  %66 = load i64, ptr %22, align 8, !tbaa !4
  %67 = mul nsw i64 %66, 1
  %68 = add nsw i64 0, %67
  store i64 %68, ptr %30, align 8, !tbaa !4
  %69 = load i32, ptr %32, align 4, !tbaa !8
  %70 = load i64, ptr %30, align 8, !tbaa !4
  %71 = load i64, ptr %33, align 8, !tbaa !4
  %72 = load i64, ptr %34, align 8, !tbaa !4
  %73 = mul nsw i64 %71, %72
  %74 = add nsw i64 %70, %73
  %75 = call i32 @extractBit(i32 noundef %69, i64 noundef %74)
  store i32 %75, ptr %21, align 4, !tbaa !8
  %76 = load i32, ptr %21, align 4, !tbaa !8
  %77 = icmp ne i32 %76, 0
  br i1 %77, label %78, label %93

78:                                               ; preds = %65
  %79 = load ptr, ptr %36, align 8, !tbaa !25
  %80 = load i64, ptr %30, align 8, !tbaa !4
  %81 = getelementptr inbounds double, ptr %79, i64 %80
  %82 = load double, ptr %81, align 8, !tbaa !10
  %83 = load ptr, ptr %35, align 8, !tbaa !25
  %84 = load i64, ptr %30, align 8, !tbaa !4
  %85 = getelementptr inbounds double, ptr %83, i64 %84
  store double %82, ptr %85, align 8, !tbaa !10
  %86 = load ptr, ptr %38, align 8, !tbaa !25
  %87 = load i64, ptr %30, align 8, !tbaa !4
  %88 = getelementptr inbounds double, ptr %86, i64 %87
  %89 = load double, ptr %88, align 8, !tbaa !10
  %90 = load ptr, ptr %37, align 8, !tbaa !25
  %91 = load i64, ptr %30, align 8, !tbaa !4
  %92 = getelementptr inbounds double, ptr %90, i64 %91
  store double %89, ptr %92, align 8, !tbaa !10
  br label %93

93:                                               ; preds = %78, %65
  br label %94

94:                                               ; preds = %93
  br label %95

95:                                               ; preds = %94
  %96 = load i64, ptr %22, align 8, !tbaa !4
  %97 = add nsw i64 %96, 1
  store i64 %97, ptr %22, align 8, !tbaa !4
  br label %60

98:                                               ; preds = %64
  br label %99

99:                                               ; preds = %98
  %100 = load ptr, ptr %11, align 8
  %101 = load i32, ptr %100, align 4, !tbaa !8
  call void @__kmpc_for_static_fini(ptr @1, i32 %101)
  call void @llvm.lifetime.end.p0(i64 8, ptr %30) #3
  call void @llvm.lifetime.end.p0(i64 4, ptr %29) #3
  call void @llvm.lifetime.end.p0(i64 8, ptr %28) #3
  call void @llvm.lifetime.end.p0(i64 8, ptr %27) #3
  call void @llvm.lifetime.end.p0(i64 8, ptr %26) #3
  br label %102

102:                                              ; preds = %99, %10
  call void @llvm.lifetime.end.p0(i64 8, ptr %24) #3
  call void @llvm.lifetime.end.p0(i64 8, ptr %23) #3
  call void @llvm.lifetime.end.p0(i64 8, ptr %22) #3
  %103 = load ptr, ptr %11, align 8
  %104 = load i32, ptr %103, align 4, !tbaa !8
  call void @__kmpc_barrier(ptr @2, i32 %104)
  call void @llvm.lifetime.end.p0(i64 4, ptr %21) #3
  ret void
}