; Function Attrs: alwaysinline norecurse nounwind uwtable
define internal void @statevec_controlledNotDistributed.omp_outlined(ptr noalias noundef readonly captures(none) %0, ptr noalias readnone captures(none) %1, ptr noundef nonnull readonly align 8 captures(none) dereferenceable(8) %2, ptr noundef nonnull readonly align 4 captures(none) dereferenceable(4) %3, ptr noundef nonnull readonly align 8 captures(none) dereferenceable(8) %4, ptr noundef nonnull readonly align 8 captures(none) dereferenceable(8) %5, ptr noundef nonnull readonly align 8 captures(none) dereferenceable(8) %6, ptr noundef nonnull readonly align 8 captures(none) dereferenceable(8) %7, ptr noundef nonnull readonly align 8 captures(none) dereferenceable(8) %8, ptr noundef nonnull readonly align 8 captures(none) dereferenceable(8) %9) #3 {
  %11 = alloca i64, align 8
  %12 = alloca i64, align 8
  %13 = alloca i64, align 8
  %14 = alloca i32, align 4
  %15 = load i64, ptr %2, align 8, !tbaa !16
  %16 = icmp sgt i64 %15, 0
  %.pre = load i32, ptr %0, align 4, !tbaa !18
  br i1 %16, label %17, label %46

17:                                               ; preds = %10
  %18 = add nsw i64 %15, -1
  call void @llvm.lifetime.start.p0(i64 8, ptr nonnull %11) #4
  store i64 0, ptr %11, align 8, !tbaa !16
  call void @llvm.lifetime.start.p0(i64 8, ptr nonnull %12) #4
  store i64 %18, ptr %12, align 8, !tbaa !16
  call void @llvm.lifetime.start.p0(i64 8, ptr nonnull %13) #4
  store i64 1, ptr %13, align 8, !tbaa !16
  call void @llvm.lifetime.start.p0(i64 4, ptr nonnull %14) #4
  store i32 0, ptr %14, align 4, !tbaa !18
  call void @__kmpc_for_static_init_8(ptr nonnull @1, i32 %.pre, i32 34, ptr nonnull %14, ptr nonnull %11, ptr nonnull %12, ptr nonnull %13, i64 1, i64 1)
  %19 = load i64, ptr %12, align 8, !tbaa !16
  %20 = call i64 @llvm.smin.i64(i64 %19, i64 %18)
  store i64 %20, ptr %12, align 8, !tbaa !16
  %21 = load i64, ptr %11, align 8, !tbaa !16
  %.not25 = icmp sgt i64 %21, %20
  br i1 %.not25, label %._crit_edge, label %.lr.ph

.lr.ph:                                           ; preds = %17
  %22 = load i32, ptr %3, align 4, !tbaa !18
  %23 = load i64, ptr %4, align 8, !tbaa !16
  %24 = load i64, ptr %5, align 8, !tbaa !16
  %25 = mul nsw i64 %24, %23
  %26 = zext i32 %22 to i64
  %27 = shl nuw i64 1, %26
  %28 = load ptr, ptr %7, align 8
  %29 = load ptr, ptr %6, align 8
  %30 = load ptr, ptr %9, align 8
  %31 = load ptr, ptr %8, align 8
  br label %32

32:                                               ; preds = %.lr.ph, %44
  %.026 = phi i64 [ %21, %.lr.ph ], [ %45, %44 ]
  %33 = add nsw i64 %25, %.026
  %34 = and i64 %33, %27
  %35 = ashr i64 %34, %26
  %36 = and i64 %35, 4294967295
  %.not24 = icmp eq i64 %36, 0
  br i1 %.not24, label %44, label %37

37:                                               ; preds = %32
  %38 = getelementptr inbounds double, ptr %28, i64 %.026
  %39 = load double, ptr %38, align 8, !tbaa !4
  %40 = getelementptr inbounds double, ptr %29, i64 %.026
  store double %39, ptr %40, align 8, !tbaa !4
  %41 = getelementptr inbounds double, ptr %30, i64 %.026
  %42 = load double, ptr %41, align 8, !tbaa !4
  %43 = getelementptr inbounds double, ptr %31, i64 %.026
  store double %42, ptr %43, align 8, !tbaa !4
  br label %44

44:                                               ; preds = %37, %32
  %45 = add i64 %.026, 1
  %exitcond.not = icmp eq i64 %.026, %20
  br i1 %exitcond.not, label %._crit_edge, label %32

._crit_edge:                                      ; preds = %44, %17
  call void @__kmpc_for_static_fini(ptr nonnull @1, i32 %.pre)
  call void @llvm.lifetime.end.p0(i64 4, ptr nonnull %14) #4
  call void @llvm.lifetime.end.p0(i64 8, ptr nonnull %13) #4
  call void @llvm.lifetime.end.p0(i64 8, ptr nonnull %12) #4
  call void @llvm.lifetime.end.p0(i64 8, ptr nonnull %11) #4
  br label %46

46:                                               ; preds = %._crit_edge, %10
  call void @__kmpc_barrier(ptr nonnull @2, i32 %.pre)
  ret void
}